ctraits.traits
__newobj__
p0
(cfermi.model.database
Database
p1
tp2
Rp3
(dp4
S'__traits_version__'
p5
S'4.5.0'
p6
sS'_file'
p7
S'/Users/dominicspadacene/Desktop/fermi/fermi/database.json'
p8
sS'_pickle_file'
p9
S'/Users/dominicspadacene/Desktop/fermi/fermi/database.p'
p10
sS'estimates'
p11
ccopy_reg
_reconstructor
p12
(ctraits.trait_handlers
TraitListObject
p13
c__builtin__
list
p14
(lp15
g0
(cfermi.model.estimate_proxy
EstimateProxy
p16
tp17
Rp18
(dp19
g5
g6
sS'variables'
p20
g12
(g13
g14
(lp21
g0
(cfermi.model.variable_proxy
VariableProxy
p22
tp23
Rp24
(dp25
S'high'
p26
F1000.0
sg5
g6
sS'name'
p27
Vnum_ppl
p28
sS'low'
p29
F100.0
sbag0
(g22
tp30
Rp31
(dp32
g26
F1000.0
sg5
g6
sg27
Vnum_airports
p33
sg29
F20.0
sbag0
(g22
tp34
Rp35
(dp36
g26
F300.0
sg5
g6
sg27
Vnum_states
p37
sg29
F30.0
sbatp38
Rp39
(dp40
S'name_items'
p41
S'variables_items'
p42
sg27
g20
sbsg27
Vnum_airplanes
p43
sS'expressions'
p44
g12
(g13
g14
(lp45
V55 * num_ppl / num_airports
p46
aV60 / num_airports * num_states
p47
atp48
Rp49
(dp50
g41
S'expressions_items'
p51
sg27
g44
sbsbag0
(g16
tp52
Rp53
(dp54
g5
g6
sg20
g12
(g13
g14
(lp55
g0
(g22
tp56
Rp57
(dp58
g26
F30000000.0
sg5
g6
sg27
Vchicago_pop
p59
sg29
F3000000.0
sbag0
(g22
tp60
Rp61
(dp62
g26
F0.1
sg5
g6
sg27
Vpiano_p_house
p63
sg29
F0.01
sbag0
(g22
tp64
Rp65
(dp66
g26
F8.0
sg5
g6
sg27
Vtime_p_piano
p67
sg29
F1.0
sbag0
(g22
tp68
Rp69
(dp70
g26
F1.0
sg5
g6
sg27
Vpiano_tune_p_year
p71
sg29
F0.33
sbatp72
Rp73
(dp74
g41
S'variables_items'
p75
sg27
g20
sbsg27
Vchitown_piano_tuners
p76
sg44
g12
(g13
g14
(lp77
V(chicago_pop * 2 * piano_p_house * piano_tune_p_year) / (50 * 5 * 8 * time_p_piano)
p78
atp79
Rp80
(dp81
g41
S'expressions_items'
p82
sg27
g44
sbsbatp83
Rp84
(dp85
g41
S'estimates_items'
p86
sg27
g11
sbsg27
S'Fermis'
p87
sb.