ctraits.traits
__newobj__
p0
(c__main__
Database
p1
tp2
Rp3
(dp4
S'__traits_version__'
p5
S'4.5.0'
p6
sS'estimates'
p7
ccopy_reg
_reconstructor
p8
(ctraits.trait_handlers
TraitListObject
p9
c__builtin__
list
p10
(lp11
g0
(c__main__
EstimateProxy
p12
tp13
Rp14
(dp15
g5
g6
sS'variables'
p16
g8
(g9
g10
(lp17
g0
(c__main__
VariableProxy
p18
tp19
Rp20
(dp21
S'high'
p22
F1000.0
sg5
g6
sS'name'
p23
Vnum_ppl
p24
sS'low'
p25
F100.0
sbag0
(g18
tp26
Rp27
(dp28
g22
F1000.0
sg5
g6
sg23
Vnum_airports
p29
sg25
F20.0
sbag0
(g18
tp30
Rp31
(dp32
g22
F300.0
sg5
g6
sg23
Vnum_states
p33
sg25
F30.0
sbatp34
Rp35
(dp36
S'name_items'
p37
Vvariables_items
p38
sg23
Vvariables
p39
sbsg23
Vnum_airplanes
p40
sS'expressions'
p41
g8
(g9
g10
(lp42
V55 * num_ppl / num_airports
p43
aV60 / num_airports * num_states
p44
atp45
Rp46
(dp47
g37
Vexpressions_items
p48
sg23
Vexpressions
p49
sbsbatp50
Rp51
(dp52
g37
S'estimates_items'
p53
sg23
g7
sbsb.