ctraits.traits
__newobj__
p0
(cfermi.model.database
Database
p1
tp2
Rp3
(dp4
S'__traits_version__'
p5
S'4.5.0'
p6
sS'_file'
p7
S'/Users/dominicspadacene/Desktop/fermi/fermi/database.json'
p8
sS'_pickle_file'
p9
S'/Users/dominicspadacene/Desktop/fermi/fermi/database.p'
p10
sS'estimates'
p11
ccopy_reg
_reconstructor
p12
(ctraits.trait_handlers
TraitListObject
p13
c__builtin__
list
p14
(lp15
g0
(cfermi.model.estimate_proxy
EstimateProxy
p16
tp17
Rp18
(dp19
g5
g6
sS'variables'
p20
g12
(g13
g14
(lp21
g0
(cfermi.model.variable_proxy
VariableProxy
p22
tp23
Rp24
(dp25
S'high'
p26
F1000.0
sg5
g6
sS'name'
p27
Vnum_ppl
p28
sS'low'
p29
F100.0
sbag0
(g22
tp30
Rp31
(dp32
g26
F1000.0
sg5
g6
sg27
Vnum_airports
p33
sg29
F20.0
sbag0
(g22
tp34
Rp35
(dp36
g26
F300.0
sg5
g6
sg27
Vnum_states
p37
sg29
F30.0
sbatp38
Rp39
(dp40
S'name_items'
p41
S'variables_items'
p42
sg27
g20
sbsg27
Vnum_airplanes
p43
sS'expressions'
p44
g12
(g13
g14
(lp45
V55 * num_ppl / num_airports
p46
aV60 / num_airports * num_states
p47
atp48
Rp49
(dp50
g41
S'expressions_items'
p51
sg27
g44
sbsbatp52
Rp53
(dp54
g41
S'estimates_items'
p55
sg27
g11
sbsg27
S'Fermis'
p56
sb.