ctraits.traits
__newobj__
p0
(cfermi.model.database
Database
p1
tp2
Rp3
(dp4
S'__traits_version__'
p5
S'4.5.0'
p6
sS'_file'
p7
S'/Users/dominicspadacene/Desktop/fermi/fermi/database.json'
p8
sS'_pickle_file'
p9
S'/Users/dominicspadacene/Desktop/fermi/fermi/database.p'
p10
sS'estimates'
p11
ccopy_reg
_reconstructor
p12
(ctraits.trait_handlers
TraitListObject
p13
c__builtin__
list
p14
(lp15
g0
(cfermi.model.estimate_proxy
EstimateProxy
p16
tp17
Rp18
(dp19
S'expressions'
p20
g12
(g13
g14
(lp21
V55 * num_ppl / num_airports
p22
aV60 / num_airports * num_states
p23
atp24
Rp25
(dp26
S'name_items'
p27
S'expressions_items'
p28
sS'name'
p29
g20
sbsg5
g6
sS'notes'
p30
S''
p31
sS'variables'
p32
g12
(g13
g14
(lp33
g0
(cfermi.model.variable_proxy
VariableProxy
p34
tp35
Rp36
(dp37
S'high'
p38
F1000.0
sg5
g6
sg30
g31
sg29
Vnum_ppl
p39
sS'low'
p40
F100.0
sbag0
(g34
tp41
Rp42
(dp43
g38
F1000.0
sg5
g6
sg30
g31
sg29
Vnum_airports
p44
sg40
F20.0
sbag0
(g34
tp45
Rp46
(dp47
g38
F300.0
sg5
g6
sg30
g31
sg29
Vnum_states
p48
sg40
F30.0
sbatp49
Rp50
(dp51
g27
S'variables_items'
p52
sg29
g32
sbsg29
Vnum_airplanes
p53
sbag0
(g16
tp54
Rp55
(dp56
g20
g12
(g13
g14
(lp57
V(chicago_pop * 2 * piano_p_house * piano_tune_p_year) / (50 * 5 * 8 * time_p_piano)
p58
atp59
Rp60
(dp61
g27
S'expressions_items'
p62
sg29
g20
sbsg5
g6
sg30
Vhttps://www.grc.nasa.gov/www/k-12/Numbers/Math/Mathematical_Thinking/fermis_piano_tuner.htm
p63
sg32
g12
(g13
g14
(lp64
g0
(g34
tp65
Rp66
(dp67
g38
F30000000.0
sg5
g6
sg30
g31
sg29
Vchicago_pop
p68
sg40
F3000000.0
sbag0
(g34
tp69
Rp70
(dp71
g38
F0.1
sg5
g6
sg30
g31
sg29
Vpiano_p_house
p72
sg40
F0.01
sbag0
(g34
tp73
Rp74
(dp75
g38
F8.0
sg5
g6
sg30
g31
sg29
Vtime_p_piano
p76
sg40
F1.0
sbag0
(g34
tp77
Rp78
(dp79
g38
F1.0
sg5
g6
sg30
g31
sg29
Vpiano_tune_p_year
p80
sg40
F0.33
sbatp81
Rp82
(dp83
g27
S'variables_items'
p84
sg29
g32
sbsg29
Vchitown_piano_tuners
p85
sbag0
(g16
tp86
Rp87
(dp88
g20
g12
(g13
g14
(lp89
V(165/2.2) * 9.8 * height * num_climbs
p90
atp91
Rp92
(dp93
g27
S'expressions_items'
p94
sg29
g20
sbsg5
g6
sg30
g31
sg32
g12
(g13
g14
(lp95
g0
(g34
tp96
Rp97
(dp98
g38
F8.0
sg5
g6
sg30
g31
sg29
Vheight
p99
sg40
F3.5
sbag0
(g34
tp100
Rp101
(dp102
g38
F100.0
sg5
g6
sg30
g31
sg29
Vnum_climbs
p103
sg40
F10.0
sbatp104
Rp105
(dp106
g27
S'variables_items'
p107
sg29
g32
sbsg29
Venergy_p_climb_sesh
p108
sbag0
(g16
tp109
Rp110
(dp111
g20
g12
(g13
g14
(lp112
VMET * 165/2.2 * time_climbing
p113
atp114
Rp115
(dp116
g27
S'expressions_items'
p117
sg29
g20
sbsg5
g6
sg30
g31
sg32
g12
(g13
g14
(lp118
g0
(g34
tp119
Rp120
(dp121
g38
F10.0
sg5
g6
sg30
g31
sg29
VMET
p122
sg40
F7.0
sbag0
(g34
tp123
Rp124
(dp125
g38
F1.5
sg5
g6
sg30
g31
sg29
Vtime_climbing
p126
sg40
F0.5
sbatp127
Rp128
(dp129
g27
S'variables_items'
p130
sg29
g32
sbsg29
Vcals_per_climb_sesh
p131
sbag0
(g16
tp132
Rp133
(dp134
g20
g12
(g13
g14
(lp135
Vdesign_per * print_per * assembly_per * ship_per * num_per_year
p136
atp137
Rp138
(dp139
g27
S'expressions_items'
p140
sg29
g20
sbsg5
g6
sg30
g31
sg32
g12
(g13
g14
(lp141
g0
(g34
tp142
Rp143
(dp144
g38
F1.0
sg5
g6
sg30
g31
sg29
Vdesign_per
p145
sg40
F0.01
sbag0
(g34
tp146
Rp147
(dp148
g38
F4000.0
sg5
g6
sg30
g31
sg29
Vnum_per_year
p149
sg40
F400.0
sbag0
(g34
tp150
Rp151
(dp152
g38
F3.0
sg5
g6
sg30
g31
sg29
Vship_per
p153
sg40
F0.3
sbag0
(g34
tp154
Rp155
(dp156
g38
F10.0
sg5
g6
sg30
g31
sg29
Vassembly_per
p157
sg40
F0.3
sbag0
(g34
tp158
Rp159
(dp160
g38
F1.0
sg5
g6
sg30
g31
sg29
Vprint_per
p161
sg40
F0.1
sbatp162
Rp163
(dp164
g27
S'variables_items'
p165
sg29
g32
sbsg29
Vlaser_cut_prod_time_per_year_hrs
p166
sbatp167
Rp168
(dp169
g27
S'estimates_items'
p170
sg29
g11
sbsg29
S'Fermis'
p171
sb.